target datalayout = "e-m:e-p270:32:32-p271:32:32-p272:64:64-i64:64-i128:128-f80:128-n8:16:32:64-S128"
target triple = "x86_64-pc-linux-gnu"

%struct.UCharIterator = type { ptr, i32, i32, i32, i32, i32, ptr, ptr, ptr, ptr, ptr, ptr, ptr, ptr, ptr, ptr }

; Function Attrs: mustprogress uwtable
define internal noundef i32 @_ZL14utf16BE_strlenPKc(ptr noundef %0) #0 {
  %2 = alloca i32, align 4
  %3 = alloca ptr, align 8
  %4 = alloca ptr, align 8
  store ptr %0, ptr %3, align 8, !tbaa !18
  %5 = load ptr, ptr %3, align 8, !tbaa !18
  %6 = ptrtoint ptr %5 to i64
  %7 = and i64 %6, 1
  %8 = icmp eq i64 %7, 0
  br i1 %8, label %9, label %12

9:                                                ; preds = %1
  %10 = load ptr, ptr %3, align 8, !tbaa !18
  %11 = call i32 @u_strlen_77(ptr noundef %10)
  store i32 %11, ptr %2, align 4
  br label %39

12:                                               ; preds = %1
  call void @llvm.lifetime.start.p0(i64 8, ptr %4) #8
  %13 = load ptr, ptr %3, align 8, !tbaa !18
  store ptr %13, ptr %4, align 8, !tbaa !18
  br label %14

14:                                               ; preds = %28, %12
  %15 = load ptr, ptr %4, align 8, !tbaa !18
  %16 = load i8, ptr %15, align 1, !tbaa !20
  %17 = sext i8 %16 to i32
  %18 = icmp eq i32 %17, 0
  br i1 %18, label %19, label %25

19:                                               ; preds = %14
  %20 = load ptr, ptr %4, align 8, !tbaa !18
  %21 = getelementptr inbounds i8, ptr %20, i64 1
  %22 = load i8, ptr %21, align 1, !tbaa !20
  %23 = sext i8 %22 to i32
  %24 = icmp eq i32 %23, 0
  br label %25

25:                                               ; preds = %19, %14
  %26 = phi i1 [ false, %14 ], [ %24, %19 ]
  %27 = xor i1 %26, true
  br i1 %27, label %28, label %31

28:                                               ; preds = %25
  %29 = load ptr, ptr %4, align 8, !tbaa !18
  %30 = getelementptr inbounds i8, ptr %29, i64 2
  store ptr %30, ptr %4, align 8, !tbaa !18
  br label %14, !llvm.loop !21

31:                                               ; preds = %25
  %32 = load ptr, ptr %4, align 8, !tbaa !18
  %33 = load ptr, ptr %3, align 8, !tbaa !18
  %34 = ptrtoint ptr %32 to i64
  %35 = ptrtoint ptr %33 to i64
  %36 = sub i64 %34, %35
  %37 = sdiv i64 %36, 2
  %38 = trunc i64 %37 to i32
  store i32 %38, ptr %2, align 4
  call void @llvm.lifetime.end.p0(i64 8, ptr %4) #8
  br label %39

39:                                               ; preds = %31, %9
  %40 = load i32, ptr %2, align 4
  ret i32 %40
}

; Function Attrs: mustprogress uwtable
define void @uiter_setUTF16BE_77(ptr noundef %0, ptr noundef %1, i32 noundef %2) #0 {
  %4 = alloca ptr, align 8
  %5 = alloca ptr, align 8
  %6 = alloca i32, align 4
  store ptr %0, ptr %4, align 8, !tbaa !3
  store ptr %1, ptr %5, align 8, !tbaa !18
  store i32 %2, ptr %6, align 4, !tbaa !10
  %7 = load ptr, ptr %4, align 8, !tbaa !3
  %8 = icmp ne ptr %7, null
  br i1 %8, label %9, label %49

9:                                                ; preds = %3
  %10 = load ptr, ptr %5, align 8, !tbaa !18
  %11 = icmp ne ptr %10, null
  br i1 %11, label %12, label %46

12:                                               ; preds = %9
  %13 = load i32, ptr %6, align 4, !tbaa !10
  %14 = icmp eq i32 %13, -1
  br i1 %14, label %22, label %15

15:                                               ; preds = %12
  %16 = load i32, ptr %6, align 4, !tbaa !10
  %17 = icmp sge i32 %16, 0
  br i1 %17, label %18, label %46

18:                                               ; preds = %15
  %19 = load i32, ptr %6, align 4, !tbaa !10
  %20 = and i32 %19, 1
  %21 = icmp eq i32 %20, 0
  br i1 %21, label %22, label %46

22:                                               ; preds = %18, %12
  %23 = load i32, ptr %6, align 4, !tbaa !10
  %24 = ashr i32 %23, 1
  store i32 %24, ptr %6, align 4, !tbaa !10
  %25 = load ptr, ptr %4, align 8, !tbaa !3
  call void @llvm.memcpy.p0.p0.i64(ptr align 8 %25, ptr align 8 @_ZL15utf16BEIterator, i64 112, i1 false), !tbaa.struct !12
  %26 = load ptr, ptr %5, align 8, !tbaa !18
  %27 = load ptr, ptr %4, align 8, !tbaa !3
  %28 = getelementptr inbounds nuw %struct.UCharIterator, ptr %27, i32 0, i32 0
  store ptr %26, ptr %28, align 8, !tbaa !14
  %29 = load i32, ptr %6, align 4, !tbaa !10
  %30 = icmp sge i32 %29, 0
  br i1 %30, label %31, label %35

31:                                               ; preds = %22
  %32 = load i32, ptr %6, align 4, !tbaa !10
  %33 = load ptr, ptr %4, align 8, !tbaa !3
  %34 = getelementptr inbounds nuw %struct.UCharIterator, ptr %33, i32 0, i32 1
  store i32 %32, ptr %34, align 8, !tbaa !16
  br label %40

35:                                               ; preds = %22
  %36 = load ptr, ptr %5, align 8, !tbaa !18
  %37 = call noundef i32 @_ZL14utf16BE_strlenPKc(ptr noundef %36)
  %38 = load ptr, ptr %4, align 8, !tbaa !3
  %39 = getelementptr inbounds nuw %struct.UCharIterator, ptr %38, i32 0, i32 1
  store i32 %37, ptr %39, align 8, !tbaa !16
  br label %40

40:                                               ; preds = %35, %31
  %41 = load ptr, ptr %4, align 8, !tbaa !3
  %42 = getelementptr inbounds nuw %struct.UCharIterator, ptr %41, i32 0, i32 1
  %43 = load i32, ptr %42, align 8, !tbaa !16
  %44 = load ptr, ptr %4, align 8, !tbaa !3
  %45 = getelementptr inbounds nuw %struct.UCharIterator, ptr %44, i32 0, i32 4
  store i32 %43, ptr %45, align 4, !tbaa !17
  br label %48

46:                                               ; preds = %18, %15, %9
  %47 = load ptr, ptr %4, align 8, !tbaa !3
  call void @llvm.memcpy.p0.p0.i64(ptr align 8 %47, ptr align 8 @_ZL12noopIterator, i64 112, i1 false), !tbaa.struct !12
  br label %48

48:                                               ; preds = %46, %40
  br label %49

49:                                               ; preds = %48, %3
  ret void
}